target datalayout = "e-m:e-p270:32:32-p271:32:32-p272:64:64-i64:64-i128:128-f80:128-n8:16:32:64-S128"
target triple = "x86_64-pc-linux-gnu"

%struct.pmix_class_t = type { ptr, ptr, ptr, ptr, i32, i32, ptr, ptr, i64 }
%struct.pmix_server_globals_t = type { %struct.pmix_list_t, %struct.pmix_pointer_array_t, %struct.pmix_list_t, %struct.pmix_list_t, %struct.pmix_list_t, %struct.pmix_list_t, ptr, %struct.pmix_list_t, ptr, %struct.pmix_list_t, %struct.pmix_list_t, %struct.pmix_list_t, i64, i8, ptr, ptr, i8, i32, i32, i32, i32, i32, i32, i32, i32, i32, i32, i32, i32, i32, i32, i32, i32, i32, i32 }
%struct.pmix_pointer_array_t = type { %struct.pmix_object_t, i32, i32, i32, i32, i32, ptr, ptr }
%struct.pmix_object_t = type { %union.pthread_mutex_t, ptr, i32, %struct.pmix_tma }
%union.pthread_mutex_t = type { %struct.__pthread_mutex_s }
%struct.__pthread_mutex_s = type { i32, i32, i32, i32, i32, i16, i16, %struct.__pthread_internal_list }
%struct.__pthread_internal_list = type { ptr, ptr }
%struct.pmix_tma = type { ptr, ptr, ptr, ptr, ptr, ptr, ptr, ptr }
%struct.pmix_list_t = type { %struct.pmix_object_t, %struct.pmix_list_item_t, i64 }
%struct.pmix_list_item_t = type { %struct.pmix_object_t, ptr, ptr, i32 }
%struct.pmix_proc = type { [256 x i8], i32 }
%struct.pmix_iof_flags_t = type { i8, i8, i8, i8, i8, i8, i8, ptr, ptr, i8, i8, i8, i8, i8, i8 }
%struct.pmix_epilog_t = type { i32, i32, %struct.pmix_list_t, %struct.pmix_list_t, %struct.pmix_list_t }
%struct.pmix_namespace_t = type { %struct.pmix_list_item_t, ptr, %struct.anon.10, i32, i64, i64, i8, i8, ptr, i64, i64, %struct.pmix_list_t, %struct.pmix_personality_t, %struct.pmix_epilog_t, %struct.pmix_list_t, %struct.pmix_iof_flags_t, %struct.pmix_list_t }
%struct.anon.10 = type { i8, i8, i8 }
%struct.pmix_personality_t = type { i8, ptr, ptr, ptr }
%struct.pmix_dmdx_local_t = type { %struct.pmix_list_item_t, %struct.pmix_proc, %struct.pmix_list_t, ptr, i64 }

@pmix_server_globals = external global %struct.pmix_server_globals_t, align 8
@.str.24 = private unnamed_addr constant [21 x i8] c"pthread_mutex_lock()\00", align 1

; Function Attrs: inlinehint nounwind uwtable
define internal void @pmix_tma_free(ptr noundef %0, ptr noundef %1) #5 {
  %3 = alloca ptr, align 8
  %4 = alloca ptr, align 8
  store ptr %0, ptr %3, align 8, !tbaa !153
  store ptr %1, ptr %4, align 8, !tbaa !3
  %5 = load ptr, ptr %3, align 8, !tbaa !153
  %6 = icmp ne ptr null, %5
  br i1 %6, label %7, label %13

7:                                                ; preds = %2
  %8 = load ptr, ptr %3, align 8, !tbaa !153
  %9 = getelementptr inbounds nuw %struct.pmix_tma, ptr %8, i32 0, i32 5
  %10 = load ptr, ptr %9, align 8, !tbaa !185
  %11 = load ptr, ptr %3, align 8, !tbaa !153
  %12 = load ptr, ptr %4, align 8, !tbaa !3
  call void %10(ptr noundef %11, ptr noundef %12)
  br label %15

13:                                               ; preds = %2
  %14 = load ptr, ptr %4, align 8, !tbaa !3
  call void @free(ptr noundef %14) #13
  br label %15

15:                                               ; preds = %13, %7
  ret void
}

; Function Attrs: inlinehint nounwind uwtable
define internal void @pmix_obj_run_destructors(ptr noundef %0) #5 {
  %2 = alloca ptr, align 8
  %3 = alloca ptr, align 8
  store ptr %0, ptr %2, align 8, !tbaa !150
  call void @llvm.lifetime.start.p0(i64 8, ptr %3) #13
  %4 = load ptr, ptr %2, align 8, !tbaa !150
  %5 = getelementptr inbounds nuw %struct.pmix_object_t, ptr %4, i32 0, i32 1
  %6 = load ptr, ptr %5, align 8, !tbaa !83
  %7 = getelementptr inbounds nuw %struct.pmix_class_t, ptr %6, i32 0, i32 7
  %8 = load ptr, ptr %7, align 8, !tbaa !171
  store ptr %8, ptr %3, align 8, !tbaa !3
  br label %9

9:                                                ; preds = %13, %1
  %10 = load ptr, ptr %3, align 8, !tbaa !3
  %11 = load ptr, ptr %10, align 8, !tbaa !3
  %12 = icmp ne ptr null, %11
  br i1 %12, label %13, label %19

13:                                               ; preds = %9
  %14 = load ptr, ptr %3, align 8, !tbaa !3
  %15 = load ptr, ptr %14, align 8, !tbaa !3
  %16 = load ptr, ptr %2, align 8, !tbaa !150
  call void %15(ptr noundef %16)
  %17 = load ptr, ptr %3, align 8, !tbaa !3
  %18 = getelementptr inbounds nuw ptr, ptr %17, i32 1
  store ptr %18, ptr %3, align 8, !tbaa !3
  br label %9, !llvm.loop !172

19:                                               ; preds = %9
  call void @llvm.lifetime.end.p0(i64 8, ptr %3) #13
  ret void
}

; Function Attrs: alwaysinline nounwind uwtable
define internal i32 @pmix_obj_update(ptr noundef %0, i32 noundef %1) #7 {
  %3 = alloca ptr, align 8
  %4 = alloca i32, align 4
  %5 = alloca i32, align 4
  store ptr %0, ptr %3, align 8, !tbaa !150
  store i32 %1, ptr %4, align 4, !tbaa !41
  call void @llvm.lifetime.start.p0(i64 4, ptr %5) #13
  %6 = load ptr, ptr %3, align 8, !tbaa !150
  %7 = getelementptr inbounds nuw %struct.pmix_object_t, ptr %6, i32 0, i32 0
  %8 = call i32 @pthread_mutex_lock(ptr noundef %7) #13
  store i32 %8, ptr %5, align 4, !tbaa !41
  %9 = load i32, ptr %5, align 4, !tbaa !41
  %10 = icmp eq i32 %9, 35
  br i1 %10, label %11, label %14

11:                                               ; preds = %2
  %12 = load i32, ptr %5, align 4, !tbaa !41
  %13 = call ptr @__errno_location() #15
  store i32 %12, ptr %13, align 4, !tbaa !41
  call void @perror(ptr noundef @.str.24)
  call void @abort() #16
  unreachable

14:                                               ; preds = %2
  %15 = load i32, ptr %4, align 4, !tbaa !41
  %16 = load ptr, ptr %3, align 8, !tbaa !150
  %17 = getelementptr inbounds nuw %struct.pmix_object_t, ptr %16, i32 0, i32 2
  %18 = load i32, ptr %17, align 8, !tbaa !84
  %19 = add nsw i32 %18, %15
  store i32 %19, ptr %17, align 8, !tbaa !84
  store i32 %19, ptr %5, align 4, !tbaa !41
  %20 = load ptr, ptr %3, align 8, !tbaa !150
  %21 = getelementptr inbounds nuw %struct.pmix_object_t, ptr %20, i32 0, i32 0
  %22 = call i32 @pthread_mutex_unlock(ptr noundef %21) #13
  %23 = load i32, ptr %5, align 4, !tbaa !41
  call void @llvm.lifetime.end.p0(i64 4, ptr %5) #13
  ret i32 %23
}

; Function Attrs: inlinehint nounwind uwtable
define internal ptr @pmix_list_remove_item(ptr noundef %0, ptr noundef %1) #5 {
  %3 = alloca ptr, align 8
  %4 = alloca ptr, align 8
  store ptr %0, ptr %3, align 8, !tbaa !166
  store ptr %1, ptr %4, align 8, !tbaa !168
  %5 = load ptr, ptr %4, align 8, !tbaa !168
  %6 = getelementptr inbounds nuw %struct.pmix_list_item_t, ptr %5, i32 0, i32 1
  %7 = load ptr, ptr %6, align 8, !tbaa !79
  %8 = load ptr, ptr %4, align 8, !tbaa !168
  %9 = getelementptr inbounds nuw %struct.pmix_list_item_t, ptr %8, i32 0, i32 2
  %10 = load ptr, ptr %9, align 8, !tbaa !169
  %11 = getelementptr inbounds nuw %struct.pmix_list_item_t, ptr %10, i32 0, i32 1
  store volatile ptr %7, ptr %11, align 8, !tbaa !79
  %12 = load ptr, ptr %4, align 8, !tbaa !168
  %13 = getelementptr inbounds nuw %struct.pmix_list_item_t, ptr %12, i32 0, i32 2
  %14 = load ptr, ptr %13, align 8, !tbaa !169
  %15 = load ptr, ptr %4, align 8, !tbaa !168
  %16 = getelementptr inbounds nuw %struct.pmix_list_item_t, ptr %15, i32 0, i32 1
  %17 = load ptr, ptr %16, align 8, !tbaa !79
  %18 = getelementptr inbounds nuw %struct.pmix_list_item_t, ptr %17, i32 0, i32 2
  store volatile ptr %14, ptr %18, align 8, !tbaa !169
  %19 = load ptr, ptr %3, align 8, !tbaa !166
  %20 = getelementptr inbounds nuw %struct.pmix_list_t, ptr %19, i32 0, i32 2
  %21 = load volatile i64, ptr %20, align 8, !tbaa !170
  %22 = add i64 %21, -1
  store volatile i64 %22, ptr %20, align 8, !tbaa !170
  %23 = load ptr, ptr %4, align 8, !tbaa !168
  %24 = getelementptr inbounds nuw %struct.pmix_list_item_t, ptr %23, i32 0, i32 2
  %25 = load ptr, ptr %24, align 8, !tbaa !169
  ret ptr %25
}

; Function Attrs: inlinehint nounwind uwtable
define internal i64 @pmix_list_get_size(ptr noundef %0) #5 {
  %2 = alloca ptr, align 8
  store ptr %0, ptr %2, align 8, !tbaa !166
  %3 = load ptr, ptr %2, align 8, !tbaa !166
  %4 = getelementptr inbounds nuw %struct.pmix_list_t, ptr %3, i32 0, i32 2
  %5 = load volatile i64, ptr %4, align 8, !tbaa !170
  ret i64 %5
}

; Function Attrs: nounwind uwtable
define i32 @pmix_pending_resolve(ptr noundef %0, i32 noundef %1, i32 noundef %2, i8 noundef zeroext %3, ptr noundef %4) #0 {
  %6 = alloca ptr, align 8
  %7 = alloca i32, align 4
  %8 = alloca i32, align 4
  %9 = alloca i8, align 1
  %10 = alloca ptr, align 8
  %11 = alloca ptr, align 8
  %12 = alloca ptr, align 8
  %13 = alloca ptr, align 8
  %14 = alloca ptr, align 8
  store ptr %0, ptr %6, align 8, !tbaa !3
  store i32 %1, ptr %7, align 4, !tbaa !41
  store i32 %2, ptr %8, align 4, !tbaa !41
  store i8 %3, ptr %9, align 1, !tbaa !30
  store ptr %4, ptr %10, align 8, !tbaa !3
  call void @llvm.lifetime.start.p0(i64 8, ptr %11) #13
  call void @llvm.lifetime.start.p0(i64 8, ptr %12) #13
  %15 = load ptr, ptr %10, align 8, !tbaa !3
  %16 = icmp eq ptr null, %15
  br i1 %16, label %17, label %95

17:                                               ; preds = %5
  %18 = load ptr, ptr getelementptr inbounds nuw (%struct.pmix_list_item_t, ptr getelementptr inbounds nuw (%struct.pmix_list_t, ptr getelementptr inbounds nuw (%struct.pmix_server_globals_t, ptr @pmix_server_globals, i32 0, i32 4), i32 0, i32 1), i32 0, i32 1), align 8, !tbaa !186
  store ptr %18, ptr %11, align 8, !tbaa !3
  %19 = load ptr, ptr %11, align 8, !tbaa !3
  %20 = getelementptr inbounds nuw %struct.pmix_list_item_t, ptr %19, i32 0, i32 1
  %21 = load ptr, ptr %20, align 8, !tbaa !79
  store ptr %21, ptr %12, align 8, !tbaa !3
  br label %22

22:                                               ; preds = %89, %17
  %23 = load ptr, ptr %11, align 8, !tbaa !3
  %24 = icmp ne ptr %23, getelementptr inbounds nuw (%struct.pmix_list_t, ptr getelementptr inbounds nuw (%struct.pmix_server_globals_t, ptr @pmix_server_globals, i32 0, i32 4), i32 0, i32 1)
  br i1 %24, label %25, label %94

25:                                               ; preds = %22
  %26 = load ptr, ptr %6, align 8, !tbaa !3
  %27 = getelementptr inbounds nuw %struct.pmix_namespace_t, ptr %26, i32 0, i32 1
  %28 = load ptr, ptr %27, align 8, !tbaa !114
  %29 = load ptr, ptr %11, align 8, !tbaa !3
  %30 = getelementptr inbounds nuw %struct.pmix_dmdx_local_t, ptr %29, i32 0, i32 1
  %31 = getelementptr inbounds nuw %struct.pmix_proc, ptr %30, i32 0, i32 0
  %32 = getelementptr inbounds [256 x i8], ptr %31, i64 0, i64 0
  %33 = call zeroext i1 @PMIx_Check_nspace(ptr noundef %28, ptr noundef %32)
  br i1 %33, label %35, label %34

34:                                               ; preds = %25
  br label %89

35:                                               ; preds = %25
  %36 = load ptr, ptr %11, align 8, !tbaa !3
  %37 = getelementptr inbounds nuw %struct.pmix_dmdx_local_t, ptr %36, i32 0, i32 1
  %38 = getelementptr inbounds nuw %struct.pmix_proc, ptr %37, i32 0, i32 1
  %39 = load i32, ptr %38, align 8, !tbaa !183
  %40 = icmp eq i32 -1, %39
  br i1 %40, label %48, label %41

41:                                               ; preds = %35
  %42 = load i32, ptr %7, align 4, !tbaa !41
  %43 = load ptr, ptr %11, align 8, !tbaa !3
  %44 = getelementptr inbounds nuw %struct.pmix_dmdx_local_t, ptr %43, i32 0, i32 1
  %45 = getelementptr inbounds nuw %struct.pmix_proc, ptr %44, i32 0, i32 1
  %46 = load i32, ptr %45, align 8, !tbaa !183
  %47 = icmp eq i32 %42, %46
  br i1 %47, label %48, label %57

48:                                               ; preds = %41, %35
  %49 = load ptr, ptr %6, align 8, !tbaa !3
  %50 = load ptr, ptr %11, align 8, !tbaa !3
  %51 = getelementptr inbounds nuw %struct.pmix_dmdx_local_t, ptr %50, i32 0, i32 1
  %52 = getelementptr inbounds nuw %struct.pmix_proc, ptr %51, i32 0, i32 1
  %53 = load i32, ptr %52, align 8, !tbaa !183
  %54 = load i32, ptr %8, align 4, !tbaa !41
  %55 = load i8, ptr %9, align 1, !tbaa !30
  %56 = load ptr, ptr %11, align 8, !tbaa !3
  call void @check_req(ptr noundef %49, i32 noundef %53, i32 noundef %54, i8 noundef zeroext %55, ptr noundef %56)
  br label %57

57:                                               ; preds = %48, %41
  %58 = load ptr, ptr %11, align 8, !tbaa !3
  %59 = getelementptr inbounds nuw %struct.pmix_dmdx_local_t, ptr %58, i32 0, i32 2
  %60 = call i64 @pmix_list_get_size(ptr noundef %59)
  %61 = icmp eq i64 0, %60
  br i1 %61, label %62, label %88

62:                                               ; preds = %57
  %63 = load ptr, ptr %11, align 8, !tbaa !3
  %64 = getelementptr inbounds nuw %struct.pmix_dmdx_local_t, ptr %63, i32 0, i32 0
  %65 = call ptr @pmix_list_remove_item(ptr noundef getelementptr inbounds nuw (%struct.pmix_server_globals_t, ptr @pmix_server_globals, i32 0, i32 4), ptr noundef %64)
  br label %66

66:                                               ; preds = %62
  call void @llvm.lifetime.start.p0(i64 8, ptr %13) #13
  %67 = load ptr, ptr %11, align 8, !tbaa !3
  store ptr %67, ptr %13, align 8, !tbaa !150
  %68 = load ptr, ptr %13, align 8, !tbaa !150
  %69 = call i32 @pmix_obj_update(ptr noundef %68, i32 noundef -1)
  %70 = icmp eq i32 0, %69
  br i1 %70, label %71, label %85

71:                                               ; preds = %66
  %72 = load ptr, ptr %13, align 8, !tbaa !150
  call void @pmix_obj_run_destructors(ptr noundef %72)
  %73 = load ptr, ptr %13, align 8, !tbaa !150
  %74 = getelementptr inbounds nuw %struct.pmix_object_t, ptr %73, i32 0, i32 3
  %75 = getelementptr inbounds nuw %struct.pmix_tma, ptr %74, i32 0, i32 5
  %76 = load ptr, ptr %75, align 8, !tbaa !152
  %77 = icmp ne ptr null, %76
  br i1 %77, label %78, label %82

78:                                               ; preds = %71
  %79 = load ptr, ptr %13, align 8, !tbaa !150
  %80 = getelementptr inbounds nuw %struct.pmix_object_t, ptr %79, i32 0, i32 3
  %81 = load ptr, ptr %11, align 8, !tbaa !3
  call void @pmix_tma_free(ptr noundef %80, ptr noundef %81)
  br label %84

82:                                               ; preds = %71
  %83 = load ptr, ptr %11, align 8, !tbaa !3
  call void @free(ptr noundef %83) #13
  br label %84

84:                                               ; preds = %82, %78
  store ptr null, ptr %11, align 8, !tbaa !3
  br label %85

85:                                               ; preds = %84, %66
  call void @llvm.lifetime.end.p0(i64 8, ptr %13) #13
  br label %86

86:                                               ; preds = %85
  br label %87

87:                                               ; preds = %86
  br label %88

88:                                               ; preds = %87, %57
  br label %89

89:                                               ; preds = %88, %34
  %90 = load ptr, ptr %12, align 8, !tbaa !3
  store ptr %90, ptr %11, align 8, !tbaa !3
  %91 = load ptr, ptr %11, align 8, !tbaa !3
  %92 = getelementptr inbounds nuw %struct.pmix_list_item_t, ptr %91, i32 0, i32 1
  %93 = load ptr, ptr %92, align 8, !tbaa !79
  store ptr %93, ptr %12, align 8, !tbaa !3
  br label %22, !llvm.loop !195

94:                                               ; preds = %22
  br label %132

95:                                               ; preds = %5
  %96 = load ptr, ptr %6, align 8, !tbaa !3
  %97 = load i32, ptr %7, align 4, !tbaa !41
  %98 = load i32, ptr %8, align 4, !tbaa !41
  %99 = load i8, ptr %9, align 1, !tbaa !30
  %100 = load ptr, ptr %10, align 8, !tbaa !3
  call void @check_req(ptr noundef %96, i32 noundef %97, i32 noundef %98, i8 noundef zeroext %99, ptr noundef %100)
  %101 = load ptr, ptr %10, align 8, !tbaa !3
  %102 = getelementptr inbounds nuw %struct.pmix_dmdx_local_t, ptr %101, i32 0, i32 2
  %103 = call i64 @pmix_list_get_size(ptr noundef %102)
  %104 = icmp eq i64 0, %103
  br i1 %104, label %105, label %131

105:                                              ; preds = %95
  %106 = load ptr, ptr %10, align 8, !tbaa !3
  %107 = getelementptr inbounds nuw %struct.pmix_dmdx_local_t, ptr %106, i32 0, i32 0
  %108 = call ptr @pmix_list_remove_item(ptr noundef getelementptr inbounds nuw (%struct.pmix_server_globals_t, ptr @pmix_server_globals, i32 0, i32 4), ptr noundef %107)
  br label %109

109:                                              ; preds = %105
  call void @llvm.lifetime.start.p0(i64 8, ptr %14) #13
  %110 = load ptr, ptr %10, align 8, !tbaa !3
  store ptr %110, ptr %14, align 8, !tbaa !150
  %111 = load ptr, ptr %14, align 8, !tbaa !150
  %112 = call i32 @pmix_obj_update(ptr noundef %111, i32 noundef -1)
  %113 = icmp eq i32 0, %112
  br i1 %113, label %114, label %128

114:                                              ; preds = %109
  %115 = load ptr, ptr %14, align 8, !tbaa !150
  call void @pmix_obj_run_destructors(ptr noundef %115)
  %116 = load ptr, ptr %14, align 8, !tbaa !150
  %117 = getelementptr inbounds nuw %struct.pmix_object_t, ptr %116, i32 0, i32 3
  %118 = getelementptr inbounds nuw %struct.pmix_tma, ptr %117, i32 0, i32 5
  %119 = load ptr, ptr %118, align 8, !tbaa !152
  %120 = icmp ne ptr null, %119
  br i1 %120, label %121, label %125

121:                                              ; preds = %114
  %122 = load ptr, ptr %14, align 8, !tbaa !150
  %123 = getelementptr inbounds nuw %struct.pmix_object_t, ptr %122, i32 0, i32 3
  %124 = load ptr, ptr %10, align 8, !tbaa !3
  call void @pmix_tma_free(ptr noundef %123, ptr noundef %124)
  br label %127

125:                                              ; preds = %114
  %126 = load ptr, ptr %10, align 8, !tbaa !3
  call void @free(ptr noundef %126) #13
  br label %127

127:                                              ; preds = %125, %121
  store ptr null, ptr %10, align 8, !tbaa !3
  br label %128

128:                                              ; preds = %127, %109
  call void @llvm.lifetime.end.p0(i64 8, ptr %14) #13
  br label %129

129:                                              ; preds = %128
  br label %130

130:                                              ; preds = %129
  br label %131

131:                                              ; preds = %130, %95
  br label %132

132:                                              ; preds = %131, %94
  call void @llvm.lifetime.end.p0(i64 8, ptr %12) #13
  call void @llvm.lifetime.end.p0(i64 8, ptr %11) #13
  ret i32 0
}