; Function Attrs: nounwind uwtable
define noundef i32 @pmix_pending_resolve(ptr noundef readonly captures(none) %0, i32 noundef %1, i32 noundef %2, i8 noundef zeroext %3, ptr noundef %4) local_unnamed_addr #1 {
  %6 = icmp eq ptr %4, null
  br i1 %6, label %7, label %56

7:                                                ; preds = %5
  %8 = load ptr, ptr getelementptr inbounds nuw (i8, ptr @pmix_server_globals, i64 1216), align 8, !tbaa !166
  %.not4052 = icmp eq ptr %8, getelementptr inbounds nuw (i8, ptr @pmix_server_globals, i64 1096)
  br i1 %.not4052, label %.loopexit, label %.lr.ph

.lr.ph:                                           ; preds = %7
  %9 = getelementptr inbounds nuw i8, ptr %0, i64 144
  br label %10

10:                                               ; preds = %.lr.ph, %55
  %.053 = phi ptr [ %8, %.lr.ph ], [ %.03755, %55 ]
  %.037.in54 = getelementptr inbounds nuw i8, ptr %.053, i64 120
  %.03755 = load ptr, ptr %.037.in54, align 8, !tbaa !63
  %11 = load ptr, ptr %9, align 8, !tbaa !107
  %12 = getelementptr inbounds nuw i8, ptr %.053, i64 144
  %13 = tail call zeroext i1 @PMIx_Check_nspace(ptr noundef %11, ptr noundef nonnull %12) #15
  br i1 %13, label %14, label %55

14:                                               ; preds = %10
  %15 = getelementptr inbounds nuw i8, ptr %.053, i64 400
  %16 = load i32, ptr %15, align 8, !tbaa !147
  %17 = icmp eq i32 %16, -1
  %18 = icmp eq i32 %1, %16
  %or.cond = or i1 %17, %18
  br i1 %or.cond, label %19, label %20

19:                                               ; preds = %14
  tail call fastcc void @check_req(ptr noundef nonnull %0, i32 noundef %16, i32 noundef %2, i8 noundef zeroext %3, ptr noundef %.053)
  br label %20

20:                                               ; preds = %14, %19
  %21 = getelementptr inbounds nuw i8, ptr %.053, i64 672
  %22 = load volatile i64, ptr %21, align 8, !tbaa !84
  %23 = icmp eq i64 %22, 0
  br i1 %23, label %24, label %55

24:                                               ; preds = %20
  %25 = load ptr, ptr %.037.in54, align 8, !tbaa !63
  %26 = getelementptr inbounds nuw i8, ptr %.053, i64 128
  %27 = load ptr, ptr %26, align 8, !tbaa !83
  %28 = getelementptr inbounds nuw i8, ptr %27, i64 120
  store volatile ptr %25, ptr %28, align 8, !tbaa !63
  %29 = getelementptr inbounds nuw i8, ptr %25, i64 128
  store volatile ptr %27, ptr %29, align 8, !tbaa !83
  %30 = load volatile i64, ptr getelementptr inbounds nuw (i8, ptr @pmix_server_globals, i64 1240), align 8, !tbaa !84
  %31 = add i64 %30, -1
  store volatile i64 %31, ptr getelementptr inbounds nuw (i8, ptr @pmix_server_globals, i64 1240), align 8, !tbaa !84
  %32 = tail call i32 @pthread_mutex_lock(ptr noundef %.053) #15
  %33 = icmp eq i32 %32, 35
  br i1 %33, label %34, label %pmix_obj_update.exit42

34:                                               ; preds = %24
  %35 = tail call ptr @__errno_location() #17
  store i32 35, ptr %35, align 4, !tbaa !34
  tail call void @perror(ptr noundef nonnull @.str.24) #18
  tail call void @abort() #19
  unreachable

pmix_obj_update.exit42:                           ; preds = %24
  %36 = getelementptr inbounds nuw i8, ptr %.053, i64 48
  %37 = load i32, ptr %36, align 8, !tbaa !74
  %38 = add nsw i32 %37, -1
  store i32 %38, ptr %36, align 8, !tbaa !74
  %39 = tail call i32 @pthread_mutex_unlock(ptr noundef %.053) #15
  %40 = icmp eq i32 %38, 0
  br i1 %40, label %41, label %55

41:                                               ; preds = %pmix_obj_update.exit42
  %42 = getelementptr inbounds nuw i8, ptr %.053, i64 40
  %43 = load ptr, ptr %42, align 8, !tbaa !73
  %44 = getelementptr inbounds nuw i8, ptr %43, i64 48
  %45 = load ptr, ptr %44, align 8, !tbaa !98
  %46 = load ptr, ptr %45, align 8, !tbaa !76
  %.not6.i = icmp eq ptr %46, null
  br i1 %.not6.i, label %pmix_obj_run_destructors.exit, label %.lr.ph.i

.lr.ph.i:                                         ; preds = %41, %.lr.ph.i
  %47 = phi ptr [ %49, %.lr.ph.i ], [ %46, %41 ]
  %.07.i = phi ptr [ %48, %.lr.ph.i ], [ %45, %41 ]
  tail call void %47(ptr noundef %.053) #15
  %48 = getelementptr inbounds nuw i8, ptr %.07.i, i64 8
  %49 = load ptr, ptr %48, align 8, !tbaa !76
  %.not.i = icmp eq ptr %49, null
  br i1 %.not.i, label %pmix_obj_run_destructors.exit, label %.lr.ph.i, !llvm.loop !99

pmix_obj_run_destructors.exit:                    ; preds = %.lr.ph.i, %41
  %50 = getelementptr inbounds nuw i8, ptr %.053, i64 96
  %51 = load ptr, ptr %50, align 8, !tbaa !144
  %.not41 = icmp eq ptr %51, null
  br i1 %.not41, label %54, label %52

52:                                               ; preds = %pmix_obj_run_destructors.exit
  %53 = getelementptr inbounds nuw i8, ptr %.053, i64 56
  tail call void %51(ptr noundef nonnull %53, ptr noundef nonnull %.053) #15
  br label %55

54:                                               ; preds = %pmix_obj_run_destructors.exit
  tail call void @free(ptr noundef nonnull %.053) #15
  br label %55

55:                                               ; preds = %pmix_obj_update.exit42, %54, %52, %20, %10
  %.not40 = icmp eq ptr %.03755, getelementptr inbounds nuw (i8, ptr @pmix_server_globals, i64 1096)
  br i1 %.not40, label %.loopexit, label %10, !llvm.loop !171

56:                                               ; preds = %5
  tail call fastcc void @check_req(ptr noundef %0, i32 noundef %1, i32 noundef %2, i8 noundef zeroext %3, ptr noundef nonnull %4)
  %57 = getelementptr inbounds nuw i8, ptr %4, i64 672
  %58 = load volatile i64, ptr %57, align 8, !tbaa !84
  %59 = icmp eq i64 %58, 0
  br i1 %59, label %60, label %.loopexit

60:                                               ; preds = %56
  %61 = getelementptr inbounds nuw i8, ptr %4, i64 120
  %62 = load ptr, ptr %61, align 8, !tbaa !63
  %63 = getelementptr inbounds nuw i8, ptr %4, i64 128
  %64 = load ptr, ptr %63, align 8, !tbaa !83
  %65 = getelementptr inbounds nuw i8, ptr %64, i64 120
  store volatile ptr %62, ptr %65, align 8, !tbaa !63
  %66 = getelementptr inbounds nuw i8, ptr %62, i64 128
  store volatile ptr %64, ptr %66, align 8, !tbaa !83
  %67 = load volatile i64, ptr getelementptr inbounds nuw (i8, ptr @pmix_server_globals, i64 1240), align 8, !tbaa !84
  %68 = add i64 %67, -1
  store volatile i64 %68, ptr getelementptr inbounds nuw (i8, ptr @pmix_server_globals, i64 1240), align 8, !tbaa !84
  %69 = tail call i32 @pthread_mutex_lock(ptr noundef nonnull %4) #15
  %70 = icmp eq i32 %69, 35
  br i1 %70, label %71, label %pmix_obj_update.exit

71:                                               ; preds = %60
  %72 = tail call ptr @__errno_location() #17
  store i32 35, ptr %72, align 4, !tbaa !34
  tail call void @perror(ptr noundef nonnull @.str.24) #18
  tail call void @abort() #19
  unreachable

pmix_obj_update.exit:                             ; preds = %60
  %73 = getelementptr inbounds nuw i8, ptr %4, i64 48
  %74 = load i32, ptr %73, align 8, !tbaa !74
  %75 = add nsw i32 %74, -1
  store i32 %75, ptr %73, align 8, !tbaa !74
  %76 = tail call i32 @pthread_mutex_unlock(ptr noundef nonnull %4) #15
  %77 = icmp eq i32 %75, 0
  br i1 %77, label %78, label %.loopexit

78:                                               ; preds = %pmix_obj_update.exit
  %79 = getelementptr inbounds nuw i8, ptr %4, i64 40
  %80 = load ptr, ptr %79, align 8, !tbaa !73
  %81 = getelementptr inbounds nuw i8, ptr %80, i64 48
  %82 = load ptr, ptr %81, align 8, !tbaa !98
  %83 = load ptr, ptr %82, align 8, !tbaa !76
  %.not6.i44 = icmp eq ptr %83, null
  br i1 %.not6.i44, label %pmix_obj_run_destructors.exit48, label %.lr.ph.i45

.lr.ph.i45:                                       ; preds = %78, %.lr.ph.i45
  %84 = phi ptr [ %86, %.lr.ph.i45 ], [ %83, %78 ]
  %.07.i46 = phi ptr [ %85, %.lr.ph.i45 ], [ %82, %78 ]
  tail call void %84(ptr noundef nonnull %4) #15
  %85 = getelementptr inbounds nuw i8, ptr %.07.i46, i64 8
  %86 = load ptr, ptr %85, align 8, !tbaa !76
  %.not.i47 = icmp eq ptr %86, null
  br i1 %.not.i47, label %pmix_obj_run_destructors.exit48, label %.lr.ph.i45, !llvm.loop !99

pmix_obj_run_destructors.exit48:                  ; preds = %.lr.ph.i45, %78
  %87 = getelementptr inbounds nuw i8, ptr %4, i64 96
  %88 = load ptr, ptr %87, align 8, !tbaa !144
  %.not = icmp eq ptr %88, null
  br i1 %.not, label %91, label %89

89:                                               ; preds = %pmix_obj_run_destructors.exit48
  %90 = getelementptr inbounds nuw i8, ptr %4, i64 56
  tail call void %88(ptr noundef nonnull %90, ptr noundef nonnull %4) #15
  br label %.loopexit

91:                                               ; preds = %pmix_obj_run_destructors.exit48
  tail call void @free(ptr noundef nonnull %4) #15
  br label %.loopexit

.loopexit:                                        ; preds = %55, %7, %pmix_obj_update.exit, %91, %89, %56
  ret i32 0
}